; ModuleID = '46/1748.c'
source_filename = "46/1748.c"
target datalayout = "e-m:e-p270:32:32-p271:32:32-p272:64:64-i64:64-f80:128-n8:16:32:64-S128"
target triple = "x86_64-pc-linux-gnu"

@.str = private unnamed_addr constant [6 x i8] c"%d %d\00", align 1
@.str.1 = private unnamed_addr constant [3 x i8] c"%d\00", align 1
@.str.2 = private unnamed_addr constant [4 x i8] c"%d\0A\00", align 1

; Function Attrs: noinline nounwind uwtable
define dso_local i32 @main(i32 %0, i8** %1) #0 {
  %3 = alloca i32, align 4
  %4 = alloca i32, align 4
  %5 = alloca i8**, align 8
  %6 = alloca [101 x [101 x i32]], align 16
  %7 = alloca i32, align 4
  %8 = alloca i32, align 4
  %9 = alloca i32, align 4
  %10 = alloca i32, align 4
  %11 = alloca i32, align 4
  %12 = alloca i32, align 4
  store i32 0, i32* %3, align 4
  store i32 %0, i32* %4, align 4
  store i8** %1, i8*** %5, align 8
  store i32 0, i32* %10, align 4
  %13 = call i32 (i8*, ...) @__isoc99_scanf(i8* getelementptr inbounds ([6 x i8], [6 x i8]* @.str, i64 0, i64 0), i32* %11, i32* %12)
  store i32 1, i32* %7, align 4
  br label %14

14:                                               ; preds = %35, %2
  %15 = load i32, i32* %7, align 4
  %16 = load i32, i32* %11, align 4
  %17 = icmp sle i32 %15, %16
  br i1 %17, label %18, label %38

18:                                               ; preds = %14
  store i32 1, i32* %8, align 4
  br label %19

19:                                               ; preds = %31, %18
  %20 = load i32, i32* %8, align 4
  %21 = load i32, i32* %12, align 4
  %22 = icmp sle i32 %20, %21
  br i1 %22, label %23, label %34

23:                                               ; preds = %19
  %24 = load i32, i32* %7, align 4
  %25 = sext i32 %24 to i64
  %26 = getelementptr inbounds [101 x [101 x i32]], [101 x [101 x i32]]* %6, i64 0, i64 %25
  %27 = load i32, i32* %8, align 4
  %28 = sext i32 %27 to i64
  %29 = getelementptr inbounds [101 x i32], [101 x i32]* %26, i64 0, i64 %28
  %30 = call i32 (i8*, ...) @__isoc99_scanf(i8* getelementptr inbounds ([3 x i8], [3 x i8]* @.str.1, i64 0, i64 0), i32* %29)
  br label %31

31:                                               ; preds = %23
  %32 = load i32, i32* %8, align 4
  %33 = add nsw i32 %32, 1
  store i32 %33, i32* %8, align 4
  br label %19

34:                                               ; preds = %19
  br label %35

35:                                               ; preds = %34
  %36 = load i32, i32* %7, align 4
  %37 = add nsw i32 %36, 1
  store i32 %37, i32* %7, align 4
  br label %14

38:                                               ; preds = %14
  store i32 1, i32* %9, align 4
  br label %39

39:                                               ; preds = %169, %38
  %40 = load i32, i32* %9, align 4
  %41 = icmp sle i32 %40, 50
  br i1 %41, label %42, label %172

42:                                               ; preds = %39
  %43 = load i32, i32* %9, align 4
  store i32 %43, i32* %7, align 4
  br label %44

44:                                               ; preds = %62, %42
  %45 = load i32, i32* %7, align 4
  %46 = load i32, i32* %12, align 4
  %47 = add nsw i32 %46, 1
  %48 = load i32, i32* %9, align 4
  %49 = sub nsw i32 %47, %48
  %50 = icmp sle i32 %45, %49
  br i1 %50, label %51, label %65

51:                                               ; preds = %44
  %52 = load i32, i32* %9, align 4
  %53 = sext i32 %52 to i64
  %54 = getelementptr inbounds [101 x [101 x i32]], [101 x [101 x i32]]* %6, i64 0, i64 %53
  %55 = load i32, i32* %7, align 4
  %56 = sext i32 %55 to i64
  %57 = getelementptr inbounds [101 x i32], [101 x i32]* %54, i64 0, i64 %56
  %58 = load i32, i32* %57, align 4
  %59 = call i32 (i8*, ...) @printf(i8* getelementptr inbounds ([4 x i8], [4 x i8]* @.str.2, i64 0, i64 0), i32 %58)
  %60 = load i32, i32* %10, align 4
  %61 = add nsw i32 %60, 1
  store i32 %61, i32* %10, align 4
  br label %62

62:                                               ; preds = %51
  %63 = load i32, i32* %7, align 4
  %64 = add nsw i32 %63, 1
  store i32 %64, i32* %7, align 4
  br label %44

65:                                               ; preds = %44
  %66 = load i32, i32* %10, align 4
  %67 = load i32, i32* %11, align 4
  %68 = load i32, i32* %12, align 4
  %69 = mul nsw i32 %67, %68
  %70 = icmp eq i32 %66, %69
  br i1 %70, label %71, label %72

71:                                               ; preds = %65
  br label %172

72:                                               ; preds = %65
  %73 = load i32, i32* %9, align 4
  %74 = add nsw i32 %73, 1
  store i32 %74, i32* %7, align 4
  br label %75

75:                                               ; preds = %96, %72
  %76 = load i32, i32* %7, align 4
  %77 = load i32, i32* %11, align 4
  %78 = add nsw i32 %77, 1
  %79 = load i32, i32* %9, align 4
  %80 = sub nsw i32 %78, %79
  %81 = icmp sle i32 %76, %80
  br i1 %81, label %82, label %99

82:                                               ; preds = %75
  %83 = load i32, i32* %7, align 4
  %84 = sext i32 %83 to i64
  %85 = getelementptr inbounds [101 x [101 x i32]], [101 x [101 x i32]]* %6, i64 0, i64 %84
  %86 = load i32, i32* %12, align 4
  %87 = add nsw i32 %86, 1
  %88 = load i32, i32* %9, align 4
  %89 = sub nsw i32 %87, %88
  %90 = sext i32 %89 to i64
  %91 = getelementptr inbounds [101 x i32], [101 x i32]* %85, i64 0, i64 %90
  %92 = load i32, i32* %91, align 4
  %93 = call i32 (i8*, ...) @printf(i8* getelementptr inbounds ([4 x i8], [4 x i8]* @.str.2, i64 0, i64 0), i32 %92)
  %94 = load i32, i32* %10, align 4
  %95 = add nsw i32 %94, 1
  store i32 %95, i32* %10, align 4
  br label %96

96:                                               ; preds = %82
  %97 = load i32, i32* %7, align 4
  %98 = add nsw i32 %97, 1
  store i32 %98, i32* %7, align 4
  br label %75

99:                                               ; preds = %75
  %100 = load i32, i32* %10, align 4
  %101 = load i32, i32* %11, align 4
  %102 = load i32, i32* %12, align 4
  %103 = mul nsw i32 %101, %102
  %104 = icmp eq i32 %100, %103
  br i1 %104, label %105, label %106

105:                                              ; preds = %99
  br label %172

106:                                              ; preds = %99
  %107 = load i32, i32* %12, align 4
  %108 = load i32, i32* %9, align 4
  %109 = sub nsw i32 %107, %108
  store i32 %109, i32* %7, align 4
  br label %110

110:                                              ; preds = %128, %106
  %111 = load i32, i32* %7, align 4
  %112 = load i32, i32* %9, align 4
  %113 = icmp sge i32 %111, %112
  br i1 %113, label %114, label %131

114:                                              ; preds = %110
  %115 = load i32, i32* %11, align 4
  %116 = add nsw i32 %115, 1
  %117 = load i32, i32* %9, align 4
  %118 = sub nsw i32 %116, %117
  %119 = sext i32 %118 to i64
  %120 = getelementptr inbounds [101 x [101 x i32]], [101 x [101 x i32]]* %6, i64 0, i64 %119
  %121 = load i32, i32* %7, align 4
  %122 = sext i32 %121 to i64
  %123 = getelementptr inbounds [101 x i32], [101 x i32]* %120, i64 0, i64 %122
  %124 = load i32, i32* %123, align 4
  %125 = call i32 (i8*, ...) @printf(i8* getelementptr inbounds ([4 x i8], [4 x i8]* @.str.2, i64 0, i64 0), i32 %124)
  %126 = load i32, i32* %10, align 4
  %127 = add nsw i32 %126, 1
  store i32 %127, i32* %10, align 4
  br label %128

128:                                              ; preds = %114
  %129 = load i32, i32* %7, align 4
  %130 = add nsw i32 %129, -1
  store i32 %130, i32* %7, align 4
  br label %110

131:                                              ; preds = %110
  %132 = load i32, i32* %10, align 4
  %133 = load i32, i32* %11, align 4
  %134 = load i32, i32* %12, align 4
  %135 = mul nsw i32 %133, %134
  %136 = icmp eq i32 %132, %135
  br i1 %136, label %137, label %138

137:                                              ; preds = %131
  br label %172

138:                                              ; preds = %131
  %139 = load i32, i32* %11, align 4
  %140 = load i32, i32* %9, align 4
  %141 = sub nsw i32 %139, %140
  store i32 %141, i32* %7, align 4
  br label %142

142:                                              ; preds = %158, %138
  %143 = load i32, i32* %7, align 4
  %144 = load i32, i32* %9, align 4
  %145 = add nsw i32 %144, 1
  %146 = icmp sge i32 %143, %145
  br i1 %146, label %147, label %161

147:                                              ; preds = %142
  %148 = load i32, i32* %7, align 4
  %149 = sext i32 %148 to i64
  %150 = getelementptr inbounds [101 x [101 x i32]], [101 x [101 x i32]]* %6, i64 0, i64 %149
  %151 = load i32, i32* %9, align 4
  %152 = sext i32 %151 to i64
  %153 = getelementptr inbounds [101 x i32], [101 x i32]* %150, i64 0, i64 %152
  %154 = load i32, i32* %153, align 4
  %155 = call i32 (i8*, ...) @printf(i8* getelementptr inbounds ([4 x i8], [4 x i8]* @.str.2, i64 0, i64 0), i32 %154)
  %156 = load i32, i32* %10, align 4
  %157 = add nsw i32 %156, 1
  store i32 %157, i32* %10, align 4
  br label %158

158:                                              ; preds = %147
  %159 = load i32, i32* %7, align 4
  %160 = add nsw i32 %159, -1
  store i32 %160, i32* %7, align 4
  br label %142

161:                                              ; preds = %142
  %162 = load i32, i32* %10, align 4
  %163 = load i32, i32* %11, align 4
  %164 = load i32, i32* %12, align 4
  %165 = mul nsw i32 %163, %164
  %166 = icmp eq i32 %162, %165
  br i1 %166, label %167, label %168

167:                                              ; preds = %161
  br label %172

168:                                              ; preds = %161
  br label %169

169:                                              ; preds = %168
  %170 = load i32, i32* %9, align 4
  %171 = add nsw i32 %170, 1
  store i32 %171, i32* %9, align 4
  br label %39

172:                                              ; preds = %167, %137, %105, %71, %39
  ret i32 0
}

declare dso_local i32 @__isoc99_scanf(i8*, ...) #1

declare dso_local i32 @printf(i8*, ...) #1


!llvm.module.flags = !{!0}
!llvm.ident = !{!1}

!0 = !{i32 1, !"wchar_size", i32 4}
!1 = !{!"clang version 10.0.0-4ubuntu1 "}
